target datalayout = "e-m:e-p270:32:32-p271:32:32-p272:64:64-i64:64-i128:128-f80:128-n8:16:32:64-S128"
target triple = "x86_64-unknown-linux-gnu"

%"class.icu_75::UObject" = type { ptr }
%"class.icu_75::UnicodeString" = type { %"class.icu_75::Replaceable", %"union.icu_75::UnicodeString::StackBufferOrFields" }
%"class.icu_75::Replaceable" = type { %"class.icu_75::UObject" }
%"union.icu_75::UnicodeString::StackBufferOrFields" = type { %struct.anon.0, [32 x i8] }
%struct.anon.0 = type { i16, i32, i32, ptr }
%"class.icu_75::AlphabeticIndex" = type { %"class.icu_75::UObject", ptr, i32, i32, ptr, i32, ptr, ptr, ptr, ptr, ptr, %"class.icu_75::UnicodeString", %"class.icu_75::UnicodeString", %"class.icu_75::UnicodeString", %"class.icu_75::UnicodeString", %"class.icu_75::UnicodeString" }

; Function Attrs: mustprogress nounwind uwtable
define void @_ZN6icu_7515AlphabeticIndexD2Ev(ptr noundef nonnull align 8 dereferenceable(400) %this) unnamed_addr #0 align 2 {
entry:
  %this.addr = alloca ptr, align 8
  store ptr %this, ptr %this.addr, align 8
  %this1 = load ptr, ptr %this.addr, align 8
  store ptr getelementptr inbounds ({ [33 x ptr] }, ptr @_ZTVN6icu_7515AlphabeticIndexE, i32 0, i32 0, i32 2), ptr %this1, align 8
  %collator_ = getelementptr inbounds %"class.icu_75::AlphabeticIndex", ptr %this1, i32 0, i32 8
  %0 = load ptr, ptr %collator_, align 8
  %isnull = icmp eq ptr %0, null
  br i1 %isnull, label %delete.end, label %delete.notnull

delete.notnull:                                   ; preds = %entry
  call void @_ZN6icu_7517RuleBasedCollatorD1Ev(ptr noundef nonnull align 8 dereferenceable(272) %0) #7
  call void @_ZN6icu_757UMemorydlEPv(ptr noundef %0) #7
  br label %delete.end

delete.end:                                       ; preds = %delete.notnull, %entry
  %collatorPrimaryOnly_ = getelementptr inbounds %"class.icu_75::AlphabeticIndex", ptr %this1, i32 0, i32 9
  %1 = load ptr, ptr %collatorPrimaryOnly_, align 8
  %isnull2 = icmp eq ptr %1, null
  br i1 %isnull2, label %delete.end4, label %delete.notnull3

delete.notnull3:                                  ; preds = %delete.end
  call void @_ZN6icu_7517RuleBasedCollatorD1Ev(ptr noundef nonnull align 8 dereferenceable(272) %1) #7
  call void @_ZN6icu_757UMemorydlEPv(ptr noundef %1) #7
  br label %delete.end4

delete.end4:                                      ; preds = %delete.notnull3, %delete.end
  %firstCharsInScripts_ = getelementptr inbounds %"class.icu_75::AlphabeticIndex", ptr %this1, i32 0, i32 7
  %2 = load ptr, ptr %firstCharsInScripts_, align 8
  %isnull5 = icmp eq ptr %2, null
  br i1 %isnull5, label %delete.end7, label %delete.notnull6

delete.notnull6:                                  ; preds = %delete.end4
  %vtable = load ptr, ptr %2, align 8
  %vfn = getelementptr inbounds ptr, ptr %vtable, i64 1
  %3 = load ptr, ptr %vfn, align 8
  call void %3(ptr noundef nonnull align 8 dereferenceable(40) %2) #7
  br label %delete.end7

delete.end7:                                      ; preds = %delete.notnull6, %delete.end4
  %buckets_ = getelementptr inbounds %"class.icu_75::AlphabeticIndex", ptr %this1, i32 0, i32 10
  %4 = load ptr, ptr %buckets_, align 8
  %isnull8 = icmp eq ptr %4, null
  br i1 %isnull8, label %delete.end12, label %delete.notnull9

delete.notnull9:                                  ; preds = %delete.end7
  %vtable10 = load ptr, ptr %4, align 8
  %vfn11 = getelementptr inbounds ptr, ptr %vtable10, i64 1
  %5 = load ptr, ptr %vfn11, align 8
  call void %5(ptr noundef nonnull align 8 dereferenceable(24) %4) #7
  br label %delete.end12

delete.end12:                                     ; preds = %delete.notnull9, %delete.end7
  %inputList_ = getelementptr inbounds %"class.icu_75::AlphabeticIndex", ptr %this1, i32 0, i32 1
  %6 = load ptr, ptr %inputList_, align 8
  %isnull13 = icmp eq ptr %6, null
  br i1 %isnull13, label %delete.end17, label %delete.notnull14

delete.notnull14:                                 ; preds = %delete.end12
  %vtable15 = load ptr, ptr %6, align 8
  %vfn16 = getelementptr inbounds ptr, ptr %vtable15, i64 1
  %7 = load ptr, ptr %vfn16, align 8
  call void %7(ptr noundef nonnull align 8 dereferenceable(40) %6) #7
  br label %delete.end17

delete.end17:                                     ; preds = %delete.notnull14, %delete.end12
  %initialLabels_ = getelementptr inbounds %"class.icu_75::AlphabeticIndex", ptr %this1, i32 0, i32 6
  %8 = load ptr, ptr %initialLabels_, align 8
  %isnull18 = icmp eq ptr %8, null
  br i1 %isnull18, label %delete.end20, label %delete.notnull19

delete.notnull19:                                 ; preds = %delete.end17
  call void @_ZN6icu_7510UnicodeSetD1Ev(ptr noundef nonnull align 8 dereferenceable(200) %8) #7
  call void @_ZN6icu_757UMemorydlEPv(ptr noundef %8) #7
  br label %delete.end20

delete.end20:                                     ; preds = %delete.notnull19, %delete.end17
  %emptyString_ = getelementptr inbounds %"class.icu_75::AlphabeticIndex", ptr %this1, i32 0, i32 15
  call void @_ZN6icu_7513UnicodeStringD1Ev(ptr noundef nonnull align 8 dereferenceable(64) %emptyString_) #7
  %overflowComparisonString_ = getelementptr inbounds %"class.icu_75::AlphabeticIndex", ptr %this1, i32 0, i32 14
  call void @_ZN6icu_7513UnicodeStringD1Ev(ptr noundef nonnull align 8 dereferenceable(64) %overflowComparisonString_) #7
  %underflowLabel_ = getelementptr inbounds %"class.icu_75::AlphabeticIndex", ptr %this1, i32 0, i32 13
  call void @_ZN6icu_7513UnicodeStringD1Ev(ptr noundef nonnull align 8 dereferenceable(64) %underflowLabel_) #7
  %overflowLabel_ = getelementptr inbounds %"class.icu_75::AlphabeticIndex", ptr %this1, i32 0, i32 12
  call void @_ZN6icu_7513UnicodeStringD1Ev(ptr noundef nonnull align 8 dereferenceable(64) %overflowLabel_) #7
  %inflowLabel_ = getelementptr inbounds %"class.icu_75::AlphabeticIndex", ptr %this1, i32 0, i32 11
  call void @_ZN6icu_7513UnicodeStringD1Ev(ptr noundef nonnull align 8 dereferenceable(64) %inflowLabel_) #7
  call void @_ZN6icu_757UObjectD2Ev(ptr noundef nonnull align 8 dereferenceable(8) %this1) #7
  ret void
}