; Function Attrs: mustprogress nounwind uwtable
define void @_ZN6icu_7515AlphabeticIndexD2Ev(ptr noundef nonnull align 8 dereferenceable(400) %this) unnamed_addr #0 align 2 {
entry:
  store ptr getelementptr inbounds ({ [33 x ptr] }, ptr @_ZTVN6icu_7515AlphabeticIndexE, i64 0, i32 0, i64 2), ptr %this, align 8
  %collator_ = getelementptr inbounds i8, ptr %this, i64 56
  %0 = load ptr, ptr %collator_, align 8
  %isnull = icmp eq ptr %0, null
  br i1 %isnull, label %delete.end, label %delete.notnull

delete.notnull:                                   ; preds = %entry
  tail call void @_ZN6icu_7517RuleBasedCollatorD1Ev(ptr noundef nonnull align 8 dereferenceable(272) %0) #16
  tail call void @_ZN6icu_757UMemorydlEPv(ptr noundef nonnull %0) #16
  br label %delete.end

delete.end:                                       ; preds = %delete.notnull, %entry
  %collatorPrimaryOnly_ = getelementptr inbounds i8, ptr %this, i64 64
  %1 = load ptr, ptr %collatorPrimaryOnly_, align 8
  %isnull2 = icmp eq ptr %1, null
  br i1 %isnull2, label %delete.end4, label %delete.notnull3

delete.notnull3:                                  ; preds = %delete.end
  tail call void @_ZN6icu_7517RuleBasedCollatorD1Ev(ptr noundef nonnull align 8 dereferenceable(272) %1) #16
  tail call void @_ZN6icu_757UMemorydlEPv(ptr noundef nonnull %1) #16
  br label %delete.end4

delete.end4:                                      ; preds = %delete.notnull3, %delete.end
  %firstCharsInScripts_ = getelementptr inbounds i8, ptr %this, i64 48
  %2 = load ptr, ptr %firstCharsInScripts_, align 8
  %isnull5 = icmp eq ptr %2, null
  br i1 %isnull5, label %delete.end7, label %delete.notnull6

delete.notnull6:                                  ; preds = %delete.end4
  %vtable = load ptr, ptr %2, align 8
  %vfn = getelementptr inbounds i8, ptr %vtable, i64 8
  %3 = load ptr, ptr %vfn, align 8
  tail call void %3(ptr noundef nonnull align 8 dereferenceable(40) %2) #16
  br label %delete.end7

delete.end7:                                      ; preds = %delete.notnull6, %delete.end4
  %buckets_ = getelementptr inbounds i8, ptr %this, i64 72
  %4 = load ptr, ptr %buckets_, align 8
  %isnull8 = icmp eq ptr %4, null
  br i1 %isnull8, label %delete.end12, label %delete.notnull9

delete.notnull9:                                  ; preds = %delete.end7
  %vtable10 = load ptr, ptr %4, align 8
  %vfn11 = getelementptr inbounds i8, ptr %vtable10, i64 8
  %5 = load ptr, ptr %vfn11, align 8
  tail call void %5(ptr noundef nonnull align 8 dereferenceable(24) %4) #16
  br label %delete.end12

delete.end12:                                     ; preds = %delete.notnull9, %delete.end7
  %inputList_ = getelementptr inbounds i8, ptr %this, i64 8
  %6 = load ptr, ptr %inputList_, align 8
  %isnull13 = icmp eq ptr %6, null
  br i1 %isnull13, label %delete.end17, label %delete.notnull14

delete.notnull14:                                 ; preds = %delete.end12
  %vtable15 = load ptr, ptr %6, align 8
  %vfn16 = getelementptr inbounds i8, ptr %vtable15, i64 8
  %7 = load ptr, ptr %vfn16, align 8
  tail call void %7(ptr noundef nonnull align 8 dereferenceable(40) %6) #16
  br label %delete.end17

delete.end17:                                     ; preds = %delete.notnull14, %delete.end12
  %initialLabels_ = getelementptr inbounds i8, ptr %this, i64 40
  %8 = load ptr, ptr %initialLabels_, align 8
  %isnull18 = icmp eq ptr %8, null
  br i1 %isnull18, label %delete.end20, label %delete.notnull19

delete.notnull19:                                 ; preds = %delete.end17
  tail call void @_ZN6icu_7510UnicodeSetD1Ev(ptr noundef nonnull align 8 dereferenceable(200) %8) #16
  tail call void @_ZN6icu_757UMemorydlEPv(ptr noundef nonnull %8) #16
  br label %delete.end20

delete.end20:                                     ; preds = %delete.notnull19, %delete.end17
  %emptyString_ = getelementptr inbounds i8, ptr %this, i64 336
  tail call void @_ZN6icu_7513UnicodeStringD1Ev(ptr noundef nonnull align 8 dereferenceable(64) %emptyString_) #16
  %overflowComparisonString_ = getelementptr inbounds i8, ptr %this, i64 272
  tail call void @_ZN6icu_7513UnicodeStringD1Ev(ptr noundef nonnull align 8 dereferenceable(64) %overflowComparisonString_) #16
  %underflowLabel_ = getelementptr inbounds i8, ptr %this, i64 208
  tail call void @_ZN6icu_7513UnicodeStringD1Ev(ptr noundef nonnull align 8 dereferenceable(64) %underflowLabel_) #16
  %overflowLabel_ = getelementptr inbounds i8, ptr %this, i64 144
  tail call void @_ZN6icu_7513UnicodeStringD1Ev(ptr noundef nonnull align 8 dereferenceable(64) %overflowLabel_) #16
  %inflowLabel_ = getelementptr inbounds i8, ptr %this, i64 80
  tail call void @_ZN6icu_7513UnicodeStringD1Ev(ptr noundef nonnull align 8 dereferenceable(64) %inflowLabel_) #16
  tail call void @_ZN6icu_757UObjectD2Ev(ptr noundef nonnull align 8 dereferenceable(8) %this) #16
  ret void
}